; Function Attrs: nounwind uwtable
define hidden zeroext i1 @lxb_html_tree_insertion_mode_in_table_anything_else(ptr noundef %0, ptr noundef %1) local_unnamed_addr #0 {
  %3 = getelementptr inbounds i8, ptr %0, i64 80
  store i8 1, ptr %3, align 8
  %4 = tail call zeroext i1 @lxb_html_tree_insertion_mode_in_body(ptr noundef %0, ptr noundef %1) #4
  %5 = getelementptr inbounds i8, ptr %0, i64 112
  %6 = load i32, ptr %5, align 8
  %.not = icmp eq i32 %6, 0
  br i1 %.not, label %9, label %7

7:                                                ; preds = %2
  %8 = tail call zeroext i1 @lxb_html_tree_process_abort(ptr noundef nonnull %0) #4
  br label %10

9:                                                ; preds = %2
  store i8 0, ptr %3, align 8
  br label %10

10:                                               ; preds = %9, %7
  %.0 = phi i1 [ %8, %7 ], [ true, %9 ]
  ret i1 %.0
}